; Function Attrs: nounwind uwtable
define internal i32 @Inter_Field_Navigation(ptr noundef readonly captures(none) %0, ptr noundef %1) #0 {
  %3 = getelementptr inbounds nuw i8, ptr %1, i64 72
  %4 = load ptr, ptr %3, align 8, !tbaa !14
  tail call fastcc void @Synchronize_Buffer(ptr noundef %1)
  %5 = load i16, ptr %1, align 8, !tbaa !45
  %6 = and i16 %5, 32
  %.not.i = icmp eq i16 %6, 0
  br i1 %.not.i, label %7, label %11

7:                                                ; preds = %2
  %8 = getelementptr inbounds nuw i8, ptr %4, i64 48
  %9 = load i32, ptr %8, align 8, !tbaa !19
  %10 = and i32 %9, 256
  %.not11.i = icmp eq i32 %10, 0
  br i1 %.not11.i, label %11, label %.loopexit

11:                                               ; preds = %7, %2
  %12 = getelementptr inbounds nuw i8, ptr %4, i64 88
  %13 = load ptr, ptr %12, align 8, !tbaa !63
  %14 = getelementptr inbounds nuw i8, ptr %4, i64 96
  %15 = load ptr, ptr %14, align 8, !tbaa !64
  %16 = tail call fastcc zeroext i1 @Check_Field(ptr noundef %13, ptr noundef %4, ptr noundef %15)
  br i1 %16, label %17, label %_nc_Internal_Validation.exit

17:                                               ; preds = %11
  %18 = load i16, ptr %1, align 8, !tbaa !45
  %19 = and i16 %18, -33
  store i16 %19, ptr %1, align 8, !tbaa !45
  %20 = load i16, ptr %4, align 8, !tbaa !34
  %21 = or i16 %20, 1
  store i16 %21, ptr %4, align 8, !tbaa !34
  %22 = getelementptr inbounds nuw i8, ptr %4, i64 72
  %23 = load ptr, ptr %22, align 8, !tbaa !65
  %.not16.i.i = icmp eq ptr %23, null
  %.not1718.i.i = icmp eq ptr %23, %4
  %or.cond.i = select i1 %.not16.i.i, i1 true, i1 %.not1718.i.i
  br i1 %or.cond.i, label %.loopexit, label %.lr.ph.i.i

.lr.ph.i.i:                                       ; preds = %17, %.lr.ph.i.i
  %.01219.i.i = phi ptr [ %26, %.lr.ph.i.i ], [ %23, %17 ]
  %24 = tail call fastcc i32 @Synchronize_Field(ptr noundef %.01219.i.i)
  %25 = getelementptr inbounds nuw i8, ptr %.01219.i.i, i64 72
  %26 = load ptr, ptr %25, align 8, !tbaa !65
  %.not17.i.i = icmp eq ptr %26, %4
  br i1 %.not17.i.i, label %.loopexit, label %.lr.ph.i.i, !llvm.loop !66

.loopexit:                                        ; preds = %.lr.ph.i.i, %17, %7
  %27 = getelementptr inbounds nuw i8, ptr %1, i64 120
  %28 = load ptr, ptr %27, align 8, !tbaa !96
  %.not16 = icmp eq ptr %28, null
  br i1 %.not16, label %34, label %29

29:                                               ; preds = %.loopexit
  %30 = load i16, ptr %1, align 8, !tbaa !45
  %31 = or i16 %30, 2
  store i16 %31, ptr %1, align 8, !tbaa !45
  tail call void %28(ptr noundef nonnull %1) #13
  %32 = load i16, ptr %1, align 8, !tbaa !45
  %33 = and i16 %32, -3
  store i16 %33, ptr %1, align 8, !tbaa !45
  br label %34

34:                                               ; preds = %.loopexit, %29
  %35 = tail call i32 %0(ptr noundef nonnull %1) #13
  %36 = getelementptr inbounds nuw i8, ptr %1, i64 112
  %37 = load ptr, ptr %36, align 8, !tbaa !99
  %.not17 = icmp eq ptr %37, null
  br i1 %.not17, label %_nc_Internal_Validation.exit, label %38

38:                                               ; preds = %34
  %39 = load i16, ptr %1, align 8, !tbaa !45
  %40 = or i16 %39, 2
  store i16 %40, ptr %1, align 8, !tbaa !45
  tail call void %37(ptr noundef nonnull %1) #13
  %41 = load i16, ptr %1, align 8, !tbaa !45
  %42 = and i16 %41, -3
  store i16 %42, ptr %1, align 8, !tbaa !45
  br label %_nc_Internal_Validation.exit

_nc_Internal_Validation.exit:                     ; preds = %11, %34, %38
  %.0 = phi i32 [ %35, %38 ], [ %35, %34 ], [ -13, %11 ]
  ret i32 %.0
}